; Function Attrs: mustprogress uwtable
define void @_Z6do_fitiPfPA3_KfPA3_f(i32 noundef %0, ptr nocapture noundef readonly %1, ptr nocapture noundef readonly %2, ptr nocapture noundef %3) local_unnamed_addr #3 {
  %5 = alloca [3 x [3 x float]], align 16
  %6 = alloca [3 x float], align 4
  call void @llvm.lifetime.start.p0(i64 36, ptr nonnull %5)
  call void @llvm.lifetime.start.p0(i64 12, ptr nonnull %6)
  call void @_Z10calc_fit_RiiPKfPA3_S_PA3_fS4_(i32 noundef 3, i32 noundef %0, ptr noundef %1, ptr noundef %2, ptr noundef %3, ptr noundef nonnull %5)
  %7 = icmp sgt i32 %0, 0
  br i1 %7, label %.preheader29.preheader.i, label %_Z11do_fit_ndimiiPfPA3_KfPA3_f.exit

.preheader29.preheader.i:                         ; preds = %4
  %wide.trip.count.i = zext nneg i32 %0 to i64
  br label %.preheader29.i

.preheader29.i:                                   ; preds = %19, %.preheader29.preheader.i
  %indvar.i = phi i64 [ 0, %.preheader29.preheader.i ], [ %indvar.next.i, %19 ]
  %8 = mul nuw nsw i64 %indvar.i, 12
  %scevgep.i = getelementptr i8, ptr %3, i64 %8
  call void @llvm.memcpy.p0.p0.i64(ptr noundef nonnull align 4 dereferenceable(12) %6, ptr noundef nonnull align 4 dereferenceable(12) %scevgep.i, i64 12, i1 false)
  br label %9

9:                                                ; preds = %17, %.preheader29.i
  %indvars.iv37.i = phi i64 [ 0, %.preheader29.i ], [ %indvars.iv.next38.i, %17 ]
  br label %10

10:                                               ; preds = %10, %9
  %indvars.iv.i = phi i64 [ 0, %9 ], [ %indvars.iv.next.i, %10 ]
  %11 = phi float [ 0.000000e+00, %9 ], [ %16, %10 ]
  %12 = getelementptr inbounds [3 x [3 x float]], ptr %5, i64 0, i64 %indvars.iv37.i, i64 %indvars.iv.i
  %13 = load float, ptr %12, align 4
  %14 = getelementptr inbounds [3 x float], ptr %6, i64 0, i64 %indvars.iv.i
  %15 = load float, ptr %14, align 4
  %16 = tail call float @llvm.fmuladd.f32(float %13, float %15, float %11)
  %indvars.iv.next.i = add nuw nsw i64 %indvars.iv.i, 1
  %exitcond.not.i = icmp eq i64 %indvars.iv.next.i, 3
  br i1 %exitcond.not.i, label %17, label %10, !llvm.loop !24

17:                                               ; preds = %10
  %18 = getelementptr inbounds [3 x float], ptr %3, i64 %indvar.i, i64 %indvars.iv37.i
  store float %16, ptr %18, align 4
  %indvars.iv.next38.i = add nuw nsw i64 %indvars.iv37.i, 1
  %exitcond40.not.i = icmp eq i64 %indvars.iv.next38.i, 3
  br i1 %exitcond40.not.i, label %19, label %9, !llvm.loop !25

19:                                               ; preds = %17
  %indvar.next.i = add nuw nsw i64 %indvar.i, 1
  %exitcond42.not.i = icmp eq i64 %indvar.next.i, %wide.trip.count.i
  br i1 %exitcond42.not.i, label %_Z11do_fit_ndimiiPfPA3_KfPA3_f.exit, label %.preheader29.i, !llvm.loop !26

_Z11do_fit_ndimiiPfPA3_KfPA3_f.exit:              ; preds = %19, %4
  call void @llvm.lifetime.end.p0(i64 36, ptr nonnull %5)
  call void @llvm.lifetime.end.p0(i64 12, ptr nonnull %6)
  ret void
}